target datalayout = "e-m:e-p270:32:32-p271:32:32-p272:64:64-i64:64-i128:128-f80:128-n8:16:32:64-S128"
target triple = "x86_64-pc-linux-gnu"

@.str.335 = private unnamed_addr constant [5 x i8] c"ECMP\00", align 1
@.str.336 = private unnamed_addr constant [5 x i8] c"ecmp\00", align 1
@proto_ecmp = internal global i32 0, align 4
@.str.337 = private unnamed_addr constant [9 x i8] c"ecmp_tcp\00", align 1
@ecmp_tcp_handle = internal global ptr null, align 8
@.str.338 = private unnamed_addr constant [9 x i8] c"ecmp_udp\00", align 1
@ecmp_udp_handle = internal global ptr null, align 8

; Function Attrs: null_pointer_is_valid sspstrong uwtable
define hidden void @proto_register_ecmp() #0 {
  %1 = alloca ptr, align 8
  call void @llvm.lifetime.start.p0(i64 8, ptr %1) #3
  %2 = call i32 @proto_register_protocol(ptr noundef @.str.335, ptr noundef @.str.335, ptr noundef @.str.336)
  store i32 %2, ptr @proto_ecmp, align 4
  %3 = load i32, ptr @proto_ecmp, align 4
  %4 = call ptr @register_dissector(ptr noundef @.str.337, ptr noundef @dissect_ecmp_tcp, i32 noundef %3)
  store ptr %4, ptr @ecmp_tcp_handle, align 8
  %5 = load i32, ptr @proto_ecmp, align 4
  %6 = call ptr @register_dissector(ptr noundef @.str.338, ptr noundef @dissect_ecmp_udp, i32 noundef %5)
  store ptr %6, ptr @ecmp_udp_handle, align 8
  %7 = load i32, ptr @proto_ecmp, align 4
  call void @proto_register_field_array(i32 noundef %7, ptr noundef @proto_register_ecmp.hf, i32 noundef 163)
  call void @proto_register_subtree_array(ptr noundef @proto_register_ecmp.ett, i32 noundef 35)
  %8 = load i32, ptr @proto_ecmp, align 4
  %9 = call ptr @expert_register_protocol(i32 noundef %8)
  store ptr %9, ptr %1, align 8
  %10 = load ptr, ptr %1, align 8
  call void @expert_register_field_array(ptr noundef %10, ptr noundef @proto_register_ecmp.ei, i32 noundef 9)
  call void @llvm.lifetime.end.p0(i64 8, ptr %1) #3
  ret void
}