; Function Attrs: null_pointer_is_valid sspstrong uwtable
define hidden void @proto_register_ecmp() local_unnamed_addr #0 {
  %1 = tail call i32 @proto_register_protocol(ptr noundef nonnull @.str.335, ptr noundef nonnull @.str.335, ptr noundef nonnull @.str.336)
  store i32 %1, ptr @proto_ecmp, align 4
  %2 = tail call ptr @register_dissector(ptr noundef nonnull @.str.337, ptr noundef nonnull @dissect_ecmp_tcp, i32 noundef %1)
  store ptr %2, ptr @ecmp_tcp_handle, align 8
  %3 = load i32, ptr @proto_ecmp, align 4
  %4 = tail call ptr @register_dissector(ptr noundef nonnull @.str.338, ptr noundef nonnull @dissect_ecmp_udp, i32 noundef %3)
  store ptr %4, ptr @ecmp_udp_handle, align 8
  %5 = load i32, ptr @proto_ecmp, align 4
  tail call void @proto_register_field_array(i32 noundef %5, ptr noundef nonnull @proto_register_ecmp.hf, i32 noundef 163)
  tail call void @proto_register_subtree_array(ptr noundef nonnull @proto_register_ecmp.ett, i32 noundef 35)
  %6 = load i32, ptr @proto_ecmp, align 4
  %7 = tail call ptr @expert_register_protocol(i32 noundef %6)
  tail call void @expert_register_field_array(ptr noundef %7, ptr noundef nonnull @proto_register_ecmp.ei, i32 noundef 9)
  ret void
}